target datalayout = "e-m:e-p270:32:32-p271:32:32-p272:64:64-i64:64-i128:128-f80:128-n8:16:32:64-S128"
target triple = "x86_64-pc-linux-gnu"

%"class.icu_77::UVector32" = type { %"class.icu_77::UObject", i32, i32, i32, ptr }
%"class.icu_77::UObject" = type { ptr }
%"class.icu_77::RuleBasedBreakIterator::BreakCache" = type { ptr, ptr, i32, i32, i32, i32, [128 x i32], [128 x i16], %"class.icu_77::UVector32" }

; Function Attrs: mustprogress nounwind uwtable
define void @_ZN6icu_7722RuleBasedBreakIterator10BreakCache5resetEii(ptr noundef nonnull align 8 dereferenceable(832) %0, i32 noundef %1, i32 noundef %2) #2 align 2 {
  %4 = alloca ptr, align 8
  %5 = alloca i32, align 4
  %6 = alloca i32, align 4
  store ptr %0, ptr %4, align 8, !tbaa !81
  store i32 %1, ptr %5, align 4, !tbaa !22
  store i32 %2, ptr %6, align 4, !tbaa !22
  %7 = load ptr, ptr %4, align 8
  %8 = getelementptr inbounds nuw %"class.icu_77::RuleBasedBreakIterator::BreakCache", ptr %7, i32 0, i32 2
  store i32 0, ptr %8, align 8, !tbaa !84
  %9 = getelementptr inbounds nuw %"class.icu_77::RuleBasedBreakIterator::BreakCache", ptr %7, i32 0, i32 3
  store i32 0, ptr %9, align 4, !tbaa !85
  %10 = load i32, ptr %5, align 4, !tbaa !22
  %11 = getelementptr inbounds nuw %"class.icu_77::RuleBasedBreakIterator::BreakCache", ptr %7, i32 0, i32 4
  store i32 %10, ptr %11, align 8, !tbaa !86
  %12 = getelementptr inbounds nuw %"class.icu_77::RuleBasedBreakIterator::BreakCache", ptr %7, i32 0, i32 5
  store i32 0, ptr %12, align 4, !tbaa !87
  %13 = load i32, ptr %5, align 4, !tbaa !22
  %14 = getelementptr inbounds nuw %"class.icu_77::RuleBasedBreakIterator::BreakCache", ptr %7, i32 0, i32 6
  %15 = getelementptr inbounds [128 x i32], ptr %14, i64 0, i64 0
  store i32 %13, ptr %15, align 8, !tbaa !22
  %16 = load i32, ptr %6, align 4, !tbaa !22
  %17 = trunc i32 %16 to i16
  %18 = getelementptr inbounds nuw %"class.icu_77::RuleBasedBreakIterator::BreakCache", ptr %7, i32 0, i32 7
  %19 = getelementptr inbounds [128 x i16], ptr %18, i64 0, i64 0
  store i16 %17, ptr %19, align 8, !tbaa !63
  ret void
}