; Function Attrs: mustprogress nofree norecurse nosync nounwind willreturn memory(argmem: write) uwtable
define void @_ZN6icu_7722RuleBasedBreakIterator10BreakCache5resetEii(ptr noundef nonnull writeonly align 8 captures(none) dereferenceable(832) initializes((16, 36), (544, 546)) %0, i32 noundef %1, i32 noundef %2) local_unnamed_addr #7 align 2 {
  %4 = getelementptr inbounds nuw i8, ptr %0, i64 16
  store i32 0, ptr %4, align 8, !tbaa !73
  %5 = getelementptr inbounds nuw i8, ptr %0, i64 20
  store i32 0, ptr %5, align 4, !tbaa !74
  %6 = getelementptr inbounds nuw i8, ptr %0, i64 24
  store i32 %1, ptr %6, align 8, !tbaa !75
  %7 = getelementptr inbounds nuw i8, ptr %0, i64 28
  store i32 0, ptr %7, align 4, !tbaa !76
  %8 = getelementptr inbounds nuw i8, ptr %0, i64 32
  store i32 %1, ptr %8, align 8, !tbaa !17
  %9 = trunc i32 %2 to i16
  %10 = getelementptr inbounds nuw i8, ptr %0, i64 544
  store i16 %9, ptr %10, align 8, !tbaa !71
  ret void
}